; ModuleID = '55/1775.cpp'
source_filename = "55/1775.cpp"
target datalayout = "e-m:e-p270:32:32-p271:32:32-p272:64:64-i64:64-f80:128-n8:16:32:64-S128"
target triple = "x86_64-pc-linux-gnu"

%"class.std::ios_base::Init" = type { i8 }
%"class.std::basic_istream" = type { i32 (...)**, i64, %"class.std::basic_ios" }
%"class.std::basic_ios" = type { %"class.std::ios_base", %"class.std::basic_ostream"*, i8, i8, %"class.std::basic_streambuf"*, %"class.std::ctype"*, %"class.std::num_put"*, %"class.std::num_get"* }
%"class.std::ios_base" = type { i32 (...)**, i64, i64, i32, i32, i32, %"struct.std::ios_base::_Callback_list"*, %"struct.std::ios_base::_Words", [8 x %"struct.std::ios_base::_Words"], i32, %"struct.std::ios_base::_Words"*, %"class.std::locale" }
%"struct.std::ios_base::_Callback_list" = type { %"struct.std::ios_base::_Callback_list"*, void (i32, %"class.std::ios_base"*, i32)*, i32, i32 }
%"struct.std::ios_base::_Words" = type { i8*, i64 }
%"class.std::locale" = type { %"class.std::locale::_Impl"* }
%"class.std::locale::_Impl" = type { i32, %"class.std::locale::facet"**, i64, %"class.std::locale::facet"**, i8** }
%"class.std::locale::facet" = type <{ i32 (...)**, i32, [4 x i8] }>
%"class.std::basic_ostream" = type { i32 (...)**, %"class.std::basic_ios" }
%"class.std::basic_streambuf" = type { i32 (...)**, i8*, i8*, i8*, i8*, i8*, i8*, %"class.std::locale" }
%"class.std::ctype" = type <{ %"class.std::locale::facet.base", [4 x i8], %struct.__locale_struct*, i8, [7 x i8], i32*, i32*, i16*, i8, [256 x i8], [256 x i8], i8, [6 x i8] }>
%"class.std::locale::facet.base" = type <{ i32 (...)**, i32 }>
%struct.__locale_struct = type { [13 x %struct.__locale_data*], i16*, i32*, i32*, [13 x i8*] }
%struct.__locale_data = type opaque
%"class.std::num_put" = type { %"class.std::locale::facet.base", [4 x i8] }
%"class.std::num_get" = type { %"class.std::locale::facet.base", [4 x i8] }

@_ZStL8__ioinit = internal global %"class.std::ios_base::Init" zeroinitializer, align 1
@__dso_handle = external hidden global i8
@_ZSt3cin = external dso_local global %"class.std::basic_istream", align 8
@_ZSt4cout = external dso_local global %"class.std::basic_ostream", align 8
@llvm.global_ctors = appending global [1 x { i32, void ()*, i8* }] [{ i32, void ()*, i8* } { i32 65535, void ()* @_GLOBAL__sub_I_1775.cpp, i8* null }]

; Function Attrs: noinline uwtable
define internal void @__cxx_global_var_init() #0 section ".text.startup" {
  call void @_ZNSt8ios_base4InitC1Ev(%"class.std::ios_base::Init"* @_ZStL8__ioinit)
  %1 = call i32 @__cxa_atexit(void (i8*)* bitcast (void (%"class.std::ios_base::Init"*)* @_ZNSt8ios_base4InitD1Ev to void (i8*)*), i8* getelementptr inbounds (%"class.std::ios_base::Init", %"class.std::ios_base::Init"* @_ZStL8__ioinit, i32 0, i32 0), i8* @__dso_handle) #3
  ret void
}

declare dso_local void @_ZNSt8ios_base4InitC1Ev(%"class.std::ios_base::Init"*) unnamed_addr #1

; Function Attrs: nounwind
declare dso_local void @_ZNSt8ios_base4InitD1Ev(%"class.std::ios_base::Init"*) unnamed_addr #2

; Function Attrs: nounwind
declare dso_local i32 @__cxa_atexit(void (i8*)*, i8*, i8*) #3

; Function Attrs: noinline norecurse uwtable
define dso_local i32 @main() #4 {
  %1 = alloca i32, align 4
  %2 = alloca i32, align 4
  %3 = alloca i32, align 4
  %4 = alloca i32, align 4
  %5 = alloca [100 x i8], align 16
  %6 = alloca [100 x i8], align 16
  %7 = alloca i32, align 4
  %8 = alloca i32, align 4
  %9 = alloca i32, align 4
  %10 = alloca i32, align 4
  store i32 0, i32* %1, align 4
  store i32 0, i32* %4, align 4
  %11 = call dereferenceable(280) %"class.std::basic_istream"* @_ZNSirsERi(%"class.std::basic_istream"* @_ZSt3cin, i32* dereferenceable(4) %2)
  %12 = getelementptr inbounds [100 x i8], [100 x i8]* %5, i64 0, i64 0
  %13 = call dereferenceable(280) %"class.std::basic_istream"* @_ZStrsIcSt11char_traitsIcEERSt13basic_istreamIT_T0_ES6_PS3_(%"class.std::basic_istream"* dereferenceable(280) %11, i8* %12)
  %14 = call dereferenceable(280) %"class.std::basic_istream"* @_ZNSirsERi(%"class.std::basic_istream"* %13, i32* dereferenceable(4) %3)
  %15 = getelementptr inbounds [100 x i8], [100 x i8]* %5, i64 0, i64 0
  %16 = call i64 @strlen(i8* %15) #6
  %17 = trunc i64 %16 to i32
  store i32 %17, i32* %7, align 4
  store i32 0, i32* %8, align 4
  br label %18

18:                                               ; preds = %120, %0
  %19 = load i32, i32* %8, align 4
  %20 = sext i32 %19 to i64
  %21 = getelementptr inbounds [100 x i8], [100 x i8]* %5, i64 0, i64 %20
  %22 = load i8, i8* %21, align 1
  %23 = sext i8 %22 to i32
  %24 = icmp ne i32 %23, 0
  br i1 %24, label %25, label %123

25:                                               ; preds = %18
  %26 = load i32, i32* %8, align 4
  %27 = sext i32 %26 to i64
  %28 = getelementptr inbounds [100 x i8], [100 x i8]* %5, i64 0, i64 %27
  %29 = load i8, i8* %28, align 1
  %30 = sext i8 %29 to i32
  %31 = icmp sge i32 %30, 48
  br i1 %31, label %32, label %60

32:                                               ; preds = %25
  %33 = load i32, i32* %8, align 4
  %34 = sext i32 %33 to i64
  %35 = getelementptr inbounds [100 x i8], [100 x i8]* %5, i64 0, i64 %34
  %36 = load i8, i8* %35, align 1
  %37 = sext i8 %36 to i32
  %38 = icmp sle i32 %37, 57
  br i1 %38, label %39, label %60

39:                                               ; preds = %32
  %40 = load i32, i32* %8, align 4
  %41 = sext i32 %40 to i64
  %42 = getelementptr inbounds [100 x i8], [100 x i8]* %5, i64 0, i64 %41
  %43 = load i8, i8* %42, align 1
  %44 = sext i8 %43 to i32
  %45 = sub nsw i32 %44, 48
  %46 = sitofp i32 %45 to double
  %47 = load i32, i32* %2, align 4
  %48 = sitofp i32 %47 to double
  %49 = load i32, i32* %7, align 4
  %50 = sub nsw i32 %49, 1
  %51 = load i32, i32* %8, align 4
  %52 = sub nsw i32 %50, %51
  %53 = sitofp i32 %52 to double
  %54 = call double @pow(double %48, double %53) #3
  %55 = fmul double %46, %54
  %56 = load i32, i32* %4, align 4
  %57 = sitofp i32 %56 to double
  %58 = fadd double %57, %55
  %59 = fptosi double %58 to i32
  store i32 %59, i32* %4, align 4
  br label %119

60:                                               ; preds = %32, %25
  %61 = load i32, i32* %8, align 4
  %62 = sext i32 %61 to i64
  %63 = getelementptr inbounds [100 x i8], [100 x i8]* %5, i64 0, i64 %62
  %64 = load i8, i8* %63, align 1
  %65 = sext i8 %64 to i32
  %66 = icmp sle i32 %65, 122
  br i1 %66, label %67, label %96

67:                                               ; preds = %60
  %68 = load i32, i32* %8, align 4
  %69 = sext i32 %68 to i64
  %70 = getelementptr inbounds [100 x i8], [100 x i8]* %5, i64 0, i64 %69
  %71 = load i8, i8* %70, align 1
  %72 = sext i8 %71 to i32
  %73 = icmp sge i32 %72, 97
  br i1 %73, label %74, label %96

74:                                               ; preds = %67
  %75 = load i32, i32* %8, align 4
  %76 = sext i32 %75 to i64
  %77 = getelementptr inbounds [100 x i8], [100 x i8]* %5, i64 0, i64 %76
  %78 = load i8, i8* %77, align 1
  %79 = sext i8 %78 to i32
  %80 = sub nsw i32 %79, 97
  %81 = add nsw i32 %80, 10
  %82 = sitofp i32 %81 to double
  %83 = load i32, i32* %2, align 4
  %84 = sitofp i32 %83 to double
  %85 = load i32, i32* %7, align 4
  %86 = sub nsw i32 %85, 1
  %87 = load i32, i32* %8, align 4
  %88 = sub nsw i32 %86, %87
  %89 = sitofp i32 %88 to double
  %90 = call double @pow(double %84, double %89) #3
  %91 = fmul double %82, %90
  %92 = load i32, i32* %4, align 4
  %93 = sitofp i32 %92 to double
  %94 = fadd double %93, %91
  %95 = fptosi double %94 to i32
  store i32 %95, i32* %4, align 4
  br label %118

96:                                               ; preds = %67, %60
  %97 = load i32, i32* %8, align 4
  %98 = sext i32 %97 to i64
  %99 = getelementptr inbounds [100 x i8], [100 x i8]* %5, i64 0, i64 %98
  %100 = load i8, i8* %99, align 1
  %101 = sext i8 %100 to i32
  %102 = sub nsw i32 %101, 65
  %103 = add nsw i32 %102, 10
  %104 = sitofp i32 %103 to double
  %105 = load i32, i32* %2, align 4
  %106 = sitofp i32 %105 to double
  %107 = load i32, i32* %7, align 4
  %108 = sub nsw i32 %107, 1
  %109 = load i32, i32* %8, align 4
  %110 = sub nsw i32 %108, %109
  %111 = sitofp i32 %110 to double
  %112 = call double @pow(double %106, double %111) #3
  %113 = fmul double %104, %112
  %114 = load i32, i32* %4, align 4
  %115 = sitofp i32 %114 to double
  %116 = fadd double %115, %113
  %117 = fptosi double %116 to i32
  store i32 %117, i32* %4, align 4
  br label %118

118:                                              ; preds = %96, %74
  br label %119

119:                                              ; preds = %118, %39
  br label %120

120:                                              ; preds = %119
  %121 = load i32, i32* %8, align 4
  %122 = add nsw i32 %121, 1
  store i32 %122, i32* %8, align 4
  br label %18

123:                                              ; preds = %18
  store i32 0, i32* %9, align 4
  %124 = load i32, i32* %4, align 4
  %125 = icmp eq i32 %124, 0
  br i1 %125, label %126, label %128

126:                                              ; preds = %123
  %127 = call dereferenceable(272) %"class.std::basic_ostream"* @_ZNSolsEi(%"class.std::basic_ostream"* @_ZSt4cout, i32 0)
  br label %179

128:                                              ; preds = %123
  br label %129

129:                                              ; preds = %158, %128
  %130 = load i32, i32* %4, align 4
  %131 = icmp ne i32 %130, 0
  br i1 %131, label %132, label %162

132:                                              ; preds = %129
  %133 = load i32, i32* %4, align 4
  %134 = load i32, i32* %3, align 4
  %135 = srem i32 %133, %134
  %136 = icmp sle i32 %135, 9
  br i1 %136, label %137, label %147

137:                                              ; preds = %132
  %138 = load i32, i32* %4, align 4
  %139 = load i32, i32* %3, align 4
  %140 = srem i32 %138, %139
  %141 = add nsw i32 %140, 48
  %142 = trunc i32 %141 to i8
  %143 = load i32, i32* %9, align 4
  %144 = add nsw i32 %143, 1
  store i32 %144, i32* %9, align 4
  %145 = sext i32 %143 to i64
  %146 = getelementptr inbounds [100 x i8], [100 x i8]* %6, i64 0, i64 %145
  store i8 %142, i8* %146, align 1
  br label %158

147:                                              ; preds = %132
  %148 = load i32, i32* %4, align 4
  %149 = load i32, i32* %3, align 4
  %150 = srem i32 %148, %149
  %151 = sub nsw i32 %150, 10
  %152 = add nsw i32 %151, 65
  %153 = trunc i32 %152 to i8
  %154 = load i32, i32* %9, align 4
  %155 = add nsw i32 %154, 1
  store i32 %155, i32* %9, align 4
  %156 = sext i32 %154 to i64
  %157 = getelementptr inbounds [100 x i8], [100 x i8]* %6, i64 0, i64 %156
  store i8 %153, i8* %157, align 1
  br label %158

158:                                              ; preds = %147, %137
  %159 = load i32, i32* %3, align 4
  %160 = load i32, i32* %4, align 4
  %161 = sdiv i32 %160, %159
  store i32 %161, i32* %4, align 4
  br label %129

162:                                              ; preds = %129
  %163 = load i32, i32* %9, align 4
  %164 = add nsw i32 %163, -1
  store i32 %164, i32* %9, align 4
  %165 = load i32, i32* %9, align 4
  store i32 %165, i32* %10, align 4
  br label %166

166:                                              ; preds = %175, %162
  %167 = load i32, i32* %10, align 4
  %168 = icmp sge i32 %167, 0
  br i1 %168, label %169, label %178

169:                                              ; preds = %166
  %170 = load i32, i32* %10, align 4
  %171 = sext i32 %170 to i64
  %172 = getelementptr inbounds [100 x i8], [100 x i8]* %6, i64 0, i64 %171
  %173 = load i8, i8* %172, align 1
  %174 = call dereferenceable(272) %"class.std::basic_ostream"* @_ZStlsISt11char_traitsIcEERSt13basic_ostreamIcT_ES5_c(%"class.std::basic_ostream"* dereferenceable(272) @_ZSt4cout, i8 signext %173)
  br label %175

175:                                              ; preds = %169
  %176 = load i32, i32* %10, align 4
  %177 = add nsw i32 %176, -1
  store i32 %177, i32* %10, align 4
  br label %166

178:                                              ; preds = %166
  br label %179

179:                                              ; preds = %178, %126
  ret i32 0
}

declare dso_local dereferenceable(280) %"class.std::basic_istream"* @_ZStrsIcSt11char_traitsIcEERSt13basic_istreamIT_T0_ES6_PS3_(%"class.std::basic_istream"* dereferenceable(280), i8*) #1

declare dso_local dereferenceable(280) %"class.std::basic_istream"* @_ZNSirsERi(%"class.std::basic_istream"*, i32* dereferenceable(4)) #1

; Function Attrs: nounwind readonly
declare dso_local i64 @strlen(i8*) #5

; Function Attrs: nounwind
declare dso_local double @pow(double, double) #2

declare dso_local dereferenceable(272) %"class.std::basic_ostream"* @_ZNSolsEi(%"class.std::basic_ostream"*, i32) #1

declare dso_local dereferenceable(272) %"class.std::basic_ostream"* @_ZStlsISt11char_traitsIcEERSt13basic_ostreamIcT_ES5_c(%"class.std::basic_ostream"* dereferenceable(272), i8 signext) #1

; Function Attrs: noinline uwtable
define internal void @_GLOBAL__sub_I_1775.cpp() #0 section ".text.startup" {
  call void @__cxx_global_var_init()
  ret void
}


!llvm.module.flags = !{!0}
!llvm.ident = !{!1}

!0 = !{i32 1, !"wchar_size", i32 4}
!1 = !{!"clang version 10.0.0-4ubuntu1 "}
